; Function Attrs: nounwind uwtable
define range(i32 -1210, 1) i32 @rdatestr(i64 noundef %0, ptr noundef %1) local_unnamed_addr #0 {
  %3 = tail call ptr @PGTYPESdate_to_asc(i64 noundef %0) #16
  %.not = icmp eq ptr %3, null
  br i1 %.not, label %6, label %4

4:                                                ; preds = %2
  %5 = tail call ptr @strcpy(ptr noundef nonnull dereferenceable(1) %1, ptr noundef nonnull dereferenceable(1) %3) #16
  tail call void @free(ptr noundef nonnull %3) #16
  br label %6

6:                                                ; preds = %2, %4
  %.0 = phi i32 [ 0, %4 ], [ -1210, %2 ]
  ret i32 %.0
}